target datalayout = "e-m:e-p270:32:32-p271:32:32-p272:64:64-i64:64-i128:128-f80:128-n8:16:32:64-S128"
target triple = "x86_64-pc-linux-gnu"

; Function Attrs: nounwind uwtable
define void @ff_ivi_row_haar8(ptr noundef %0, ptr noundef %1, i64 noundef %2, ptr noundef %3) #0 {
  %5 = alloca ptr, align 8
  %6 = alloca ptr, align 8
  %7 = alloca i64, align 8
  %8 = alloca ptr, align 8
  %9 = alloca i32, align 4
  %10 = alloca i32, align 4
  %11 = alloca i32, align 4
  %12 = alloca i32, align 4
  %13 = alloca i32, align 4
  %14 = alloca i32, align 4
  %15 = alloca i32, align 4
  %16 = alloca i32, align 4
  %17 = alloca i32, align 4
  %18 = alloca i32, align 4
  store ptr %0, ptr %5, align 8, !tbaa !40
  store ptr %1, ptr %6, align 8, !tbaa !30
  store i64 %2, ptr %7, align 8, !tbaa !11
  store ptr %3, ptr %8, align 8, !tbaa !9
  call void @llvm.lifetime.start.p0(i64 4, ptr %9) #4
  call void @llvm.lifetime.start.p0(i64 4, ptr %10) #4
  call void @llvm.lifetime.start.p0(i64 4, ptr %11) #4
  call void @llvm.lifetime.start.p0(i64 4, ptr %12) #4
  call void @llvm.lifetime.start.p0(i64 4, ptr %13) #4
  call void @llvm.lifetime.start.p0(i64 4, ptr %14) #4
  call void @llvm.lifetime.start.p0(i64 4, ptr %15) #4
  call void @llvm.lifetime.start.p0(i64 4, ptr %16) #4
  call void @llvm.lifetime.start.p0(i64 4, ptr %17) #4
  call void @llvm.lifetime.start.p0(i64 4, ptr %18) #4
  store i32 0, ptr %9, align 4, !tbaa !13
  br label %19

19:                                               ; preds = %198, %4
  %20 = load i32, ptr %9, align 4, !tbaa !13
  %21 = icmp slt i32 %20, 8
  br i1 %21, label %22, label %201

22:                                               ; preds = %19
  %23 = load ptr, ptr %5, align 8, !tbaa !40
  %24 = getelementptr inbounds i32, ptr %23, i64 0
  %25 = load i32, ptr %24, align 4, !tbaa !13
  %26 = icmp ne i32 %25, 0
  br i1 %26, label %64, label %27

27:                                               ; preds = %22
  %28 = load ptr, ptr %5, align 8, !tbaa !40
  %29 = getelementptr inbounds i32, ptr %28, i64 1
  %30 = load i32, ptr %29, align 4, !tbaa !13
  %31 = icmp ne i32 %30, 0
  br i1 %31, label %64, label %32

32:                                               ; preds = %27
  %33 = load ptr, ptr %5, align 8, !tbaa !40
  %34 = getelementptr inbounds i32, ptr %33, i64 2
  %35 = load i32, ptr %34, align 4, !tbaa !13
  %36 = icmp ne i32 %35, 0
  br i1 %36, label %64, label %37

37:                                               ; preds = %32
  %38 = load ptr, ptr %5, align 8, !tbaa !40
  %39 = getelementptr inbounds i32, ptr %38, i64 3
  %40 = load i32, ptr %39, align 4, !tbaa !13
  %41 = icmp ne i32 %40, 0
  br i1 %41, label %64, label %42

42:                                               ; preds = %37
  %43 = load ptr, ptr %5, align 8, !tbaa !40
  %44 = getelementptr inbounds i32, ptr %43, i64 4
  %45 = load i32, ptr %44, align 4, !tbaa !13
  %46 = icmp ne i32 %45, 0
  br i1 %46, label %64, label %47

47:                                               ; preds = %42
  %48 = load ptr, ptr %5, align 8, !tbaa !40
  %49 = getelementptr inbounds i32, ptr %48, i64 5
  %50 = load i32, ptr %49, align 4, !tbaa !13
  %51 = icmp ne i32 %50, 0
  br i1 %51, label %64, label %52

52:                                               ; preds = %47
  %53 = load ptr, ptr %5, align 8, !tbaa !40
  %54 = getelementptr inbounds i32, ptr %53, i64 6
  %55 = load i32, ptr %54, align 4, !tbaa !13
  %56 = icmp ne i32 %55, 0
  br i1 %56, label %64, label %57

57:                                               ; preds = %52
  %58 = load ptr, ptr %5, align 8, !tbaa !40
  %59 = getelementptr inbounds i32, ptr %58, i64 7
  %60 = load i32, ptr %59, align 4, !tbaa !13
  %61 = icmp ne i32 %60, 0
  br i1 %61, label %64, label %62

62:                                               ; preds = %57
  %63 = load ptr, ptr %6, align 8, !tbaa !30
  call void @llvm.memset.p0.i64(ptr align 2 %63, i8 0, i64 16, i1 false)
  br label %192

64:                                               ; preds = %57, %52, %47, %42, %37, %32, %27, %22
  %65 = load ptr, ptr %5, align 8, !tbaa !40
  %66 = getelementptr inbounds i32, ptr %65, i64 0
  %67 = load i32, ptr %66, align 4, !tbaa !13
  %68 = mul nsw i32 %67, 2
  store i32 %68, ptr %11, align 4, !tbaa !13
  %69 = load ptr, ptr %5, align 8, !tbaa !40
  %70 = getelementptr inbounds i32, ptr %69, i64 1
  %71 = load i32, ptr %70, align 4, !tbaa !13
  %72 = mul nsw i32 %71, 2
  store i32 %72, ptr %15, align 4, !tbaa !13
  %73 = load i32, ptr %11, align 4, !tbaa !13
  %74 = load i32, ptr %15, align 4, !tbaa !13
  %75 = sub nsw i32 %73, %74
  %76 = ashr i32 %75, 1
  store i32 %76, ptr %10, align 4, !tbaa !13
  %77 = load i32, ptr %11, align 4, !tbaa !13
  %78 = load i32, ptr %15, align 4, !tbaa !13
  %79 = add nsw i32 %77, %78
  %80 = ashr i32 %79, 1
  store i32 %80, ptr %11, align 4, !tbaa !13
  %81 = load i32, ptr %10, align 4, !tbaa !13
  store i32 %81, ptr %15, align 4, !tbaa !13
  %82 = load i32, ptr %11, align 4, !tbaa !13
  %83 = load ptr, ptr %5, align 8, !tbaa !40
  %84 = getelementptr inbounds i32, ptr %83, i64 2
  %85 = load i32, ptr %84, align 4, !tbaa !13
  %86 = sub nsw i32 %82, %85
  %87 = ashr i32 %86, 1
  store i32 %87, ptr %10, align 4, !tbaa !13
  %88 = load i32, ptr %11, align 4, !tbaa !13
  %89 = load ptr, ptr %5, align 8, !tbaa !40
  %90 = getelementptr inbounds i32, ptr %89, i64 2
  %91 = load i32, ptr %90, align 4, !tbaa !13
  %92 = add nsw i32 %88, %91
  %93 = ashr i32 %92, 1
  store i32 %93, ptr %11, align 4, !tbaa !13
  %94 = load i32, ptr %10, align 4, !tbaa !13
  store i32 %94, ptr %13, align 4, !tbaa !13
  %95 = load i32, ptr %15, align 4, !tbaa !13
  %96 = load ptr, ptr %5, align 8, !tbaa !40
  %97 = getelementptr inbounds i32, ptr %96, i64 3
  %98 = load i32, ptr %97, align 4, !tbaa !13
  %99 = sub nsw i32 %95, %98
  %100 = ashr i32 %99, 1
  store i32 %100, ptr %10, align 4, !tbaa !13
  %101 = load i32, ptr %15, align 4, !tbaa !13
  %102 = load ptr, ptr %5, align 8, !tbaa !40
  %103 = getelementptr inbounds i32, ptr %102, i64 3
  %104 = load i32, ptr %103, align 4, !tbaa !13
  %105 = add nsw i32 %101, %104
  %106 = ashr i32 %105, 1
  store i32 %106, ptr %15, align 4, !tbaa !13
  %107 = load i32, ptr %10, align 4, !tbaa !13
  store i32 %107, ptr %17, align 4, !tbaa !13
  %108 = load i32, ptr %11, align 4, !tbaa !13
  %109 = load ptr, ptr %5, align 8, !tbaa !40
  %110 = getelementptr inbounds i32, ptr %109, i64 4
  %111 = load i32, ptr %110, align 4, !tbaa !13
  %112 = sub nsw i32 %108, %111
  %113 = ashr i32 %112, 1
  store i32 %113, ptr %10, align 4, !tbaa !13
  %114 = load i32, ptr %11, align 4, !tbaa !13
  %115 = load ptr, ptr %5, align 8, !tbaa !40
  %116 = getelementptr inbounds i32, ptr %115, i64 4
  %117 = load i32, ptr %116, align 4, !tbaa !13
  %118 = add nsw i32 %114, %117
  %119 = ashr i32 %118, 1
  store i32 %119, ptr %11, align 4, !tbaa !13
  %120 = load i32, ptr %10, align 4, !tbaa !13
  store i32 %120, ptr %12, align 4, !tbaa !13
  %121 = load i32, ptr %13, align 4, !tbaa !13
  %122 = load ptr, ptr %5, align 8, !tbaa !40
  %123 = getelementptr inbounds i32, ptr %122, i64 5
  %124 = load i32, ptr %123, align 4, !tbaa !13
  %125 = sub nsw i32 %121, %124
  %126 = ashr i32 %125, 1
  store i32 %126, ptr %10, align 4, !tbaa !13
  %127 = load i32, ptr %13, align 4, !tbaa !13
  %128 = load ptr, ptr %5, align 8, !tbaa !40
  %129 = getelementptr inbounds i32, ptr %128, i64 5
  %130 = load i32, ptr %129, align 4, !tbaa !13
  %131 = add nsw i32 %127, %130
  %132 = ashr i32 %131, 1
  store i32 %132, ptr %13, align 4, !tbaa !13
  %133 = load i32, ptr %10, align 4, !tbaa !13
  store i32 %133, ptr %14, align 4, !tbaa !13
  %134 = load i32, ptr %15, align 4, !tbaa !13
  %135 = load ptr, ptr %5, align 8, !tbaa !40
  %136 = getelementptr inbounds i32, ptr %135, i64 6
  %137 = load i32, ptr %136, align 4, !tbaa !13
  %138 = sub nsw i32 %134, %137
  %139 = ashr i32 %138, 1
  store i32 %139, ptr %10, align 4, !tbaa !13
  %140 = load i32, ptr %15, align 4, !tbaa !13
  %141 = load ptr, ptr %5, align 8, !tbaa !40
  %142 = getelementptr inbounds i32, ptr %141, i64 6
  %143 = load i32, ptr %142, align 4, !tbaa !13
  %144 = add nsw i32 %140, %143
  %145 = ashr i32 %144, 1
  store i32 %145, ptr %15, align 4, !tbaa !13
  %146 = load i32, ptr %10, align 4, !tbaa !13
  store i32 %146, ptr %16, align 4, !tbaa !13
  %147 = load i32, ptr %17, align 4, !tbaa !13
  %148 = load ptr, ptr %5, align 8, !tbaa !40
  %149 = getelementptr inbounds i32, ptr %148, i64 7
  %150 = load i32, ptr %149, align 4, !tbaa !13
  %151 = sub nsw i32 %147, %150
  %152 = ashr i32 %151, 1
  store i32 %152, ptr %10, align 4, !tbaa !13
  %153 = load i32, ptr %17, align 4, !tbaa !13
  %154 = load ptr, ptr %5, align 8, !tbaa !40
  %155 = getelementptr inbounds i32, ptr %154, i64 7
  %156 = load i32, ptr %155, align 4, !tbaa !13
  %157 = add nsw i32 %153, %156
  %158 = ashr i32 %157, 1
  store i32 %158, ptr %17, align 4, !tbaa !13
  %159 = load i32, ptr %10, align 4, !tbaa !13
  store i32 %159, ptr %18, align 4, !tbaa !13
  %160 = load i32, ptr %11, align 4, !tbaa !13
  %161 = trunc i32 %160 to i16
  %162 = load ptr, ptr %6, align 8, !tbaa !30
  %163 = getelementptr inbounds i16, ptr %162, i64 0
  store i16 %161, ptr %163, align 2, !tbaa !32
  %164 = load i32, ptr %12, align 4, !tbaa !13
  %165 = trunc i32 %164 to i16
  %166 = load ptr, ptr %6, align 8, !tbaa !30
  %167 = getelementptr inbounds i16, ptr %166, i64 1
  store i16 %165, ptr %167, align 2, !tbaa !32
  %168 = load i32, ptr %13, align 4, !tbaa !13
  %169 = trunc i32 %168 to i16
  %170 = load ptr, ptr %6, align 8, !tbaa !30
  %171 = getelementptr inbounds i16, ptr %170, i64 2
  store i16 %169, ptr %171, align 2, !tbaa !32
  %172 = load i32, ptr %14, align 4, !tbaa !13
  %173 = trunc i32 %172 to i16
  %174 = load ptr, ptr %6, align 8, !tbaa !30
  %175 = getelementptr inbounds i16, ptr %174, i64 3
  store i16 %173, ptr %175, align 2, !tbaa !32
  %176 = load i32, ptr %15, align 4, !tbaa !13
  %177 = trunc i32 %176 to i16
  %178 = load ptr, ptr %6, align 8, !tbaa !30
  %179 = getelementptr inbounds i16, ptr %178, i64 4
  store i16 %177, ptr %179, align 2, !tbaa !32
  %180 = load i32, ptr %16, align 4, !tbaa !13
  %181 = trunc i32 %180 to i16
  %182 = load ptr, ptr %6, align 8, !tbaa !30
  %183 = getelementptr inbounds i16, ptr %182, i64 5
  store i16 %181, ptr %183, align 2, !tbaa !32
  %184 = load i32, ptr %17, align 4, !tbaa !13
  %185 = trunc i32 %184 to i16
  %186 = load ptr, ptr %6, align 8, !tbaa !30
  %187 = getelementptr inbounds i16, ptr %186, i64 6
  store i16 %185, ptr %187, align 2, !tbaa !32
  %188 = load i32, ptr %18, align 4, !tbaa !13
  %189 = trunc i32 %188 to i16
  %190 = load ptr, ptr %6, align 8, !tbaa !30
  %191 = getelementptr inbounds i16, ptr %190, i64 7
  store i16 %189, ptr %191, align 2, !tbaa !32
  br label %192

192:                                              ; preds = %64, %62
  %193 = load ptr, ptr %5, align 8, !tbaa !40
  %194 = getelementptr inbounds i32, ptr %193, i64 8
  store ptr %194, ptr %5, align 8, !tbaa !40
  %195 = load i64, ptr %7, align 8, !tbaa !11
  %196 = load ptr, ptr %6, align 8, !tbaa !30
  %197 = getelementptr inbounds i16, ptr %196, i64 %195
  store ptr %197, ptr %6, align 8, !tbaa !30
  br label %198

198:                                              ; preds = %192
  %199 = load i32, ptr %9, align 4, !tbaa !13
  %200 = add nsw i32 %199, 1
  store i32 %200, ptr %9, align 4, !tbaa !13
  br label %19, !llvm.loop !44

201:                                              ; preds = %19
  call void @llvm.lifetime.end.p0(i64 4, ptr %18) #4
  call void @llvm.lifetime.end.p0(i64 4, ptr %17) #4
  call void @llvm.lifetime.end.p0(i64 4, ptr %16) #4
  call void @llvm.lifetime.end.p0(i64 4, ptr %15) #4
  call void @llvm.lifetime.end.p0(i64 4, ptr %14) #4
  call void @llvm.lifetime.end.p0(i64 4, ptr %13) #4
  call void @llvm.lifetime.end.p0(i64 4, ptr %12) #4
  call void @llvm.lifetime.end.p0(i64 4, ptr %11) #4
  call void @llvm.lifetime.end.p0(i64 4, ptr %10) #4
  call void @llvm.lifetime.end.p0(i64 4, ptr %9) #4
  ret void
}