; Function Attrs: nofree norecurse nosync nounwind memory(argmem: readwrite) uwtable
define void @ff_ivi_row_haar8(ptr noundef readonly captures(none) %0, ptr noundef writeonly captures(none) %1, i64 noundef %2, ptr noundef readnone captures(none) %3) local_unnamed_addr #2 {
  br label %5

5:                                                ; preds = %4, %86
  %.077 = phi ptr [ %0, %4 ], [ %87, %86 ]
  %.06676 = phi ptr [ %1, %4 ], [ %88, %86 ]
  %.06775 = phi i32 [ 0, %4 ], [ %89, %86 ]
  %6 = load i32, ptr %.077, align 4, !tbaa !34
  %.not = icmp eq i32 %6, 0
  %7 = getelementptr inbounds nuw i8, ptr %.077, i64 4
  %8 = load i32, ptr %7, align 4, !tbaa !34
  %.not68 = icmp eq i32 %8, 0
  %or.cond = select i1 %.not, i1 %.not68, i1 false
  br i1 %or.cond, label %9, label %._crit_edge

9:                                                ; preds = %5
  %10 = getelementptr inbounds nuw i8, ptr %.077, i64 8
  %11 = load i32, ptr %10, align 4, !tbaa !34
  %.not69 = icmp eq i32 %11, 0
  br i1 %.not69, label %12, label %._crit_edge

12:                                               ; preds = %9
  %13 = getelementptr inbounds nuw i8, ptr %.077, i64 12
  %14 = load i32, ptr %13, align 4, !tbaa !34
  %.not70 = icmp eq i32 %14, 0
  br i1 %.not70, label %15, label %._crit_edge

15:                                               ; preds = %12
  %16 = getelementptr inbounds nuw i8, ptr %.077, i64 16
  %17 = load i32, ptr %16, align 4, !tbaa !34
  %.not71 = icmp eq i32 %17, 0
  br i1 %.not71, label %18, label %._crit_edge

18:                                               ; preds = %15
  %19 = getelementptr inbounds nuw i8, ptr %.077, i64 20
  %20 = load i32, ptr %19, align 4, !tbaa !34
  %.not72 = icmp eq i32 %20, 0
  br i1 %.not72, label %21, label %._crit_edge

21:                                               ; preds = %18
  %22 = getelementptr inbounds nuw i8, ptr %.077, i64 24
  %23 = load i32, ptr %22, align 4, !tbaa !34
  %.not73 = icmp eq i32 %23, 0
  br i1 %.not73, label %24, label %._crit_edge

24:                                               ; preds = %21
  %25 = getelementptr inbounds nuw i8, ptr %.077, i64 28
  %26 = load i32, ptr %25, align 4, !tbaa !34
  %.not74 = icmp eq i32 %26, 0
  br i1 %.not74, label %27, label %._crit_edge

27:                                               ; preds = %24
  tail call void @llvm.memset.p0.i64(ptr noundef nonnull align 2 dereferenceable(16) %.06676, i8 0, i64 16, i1 false)
  br label %86

._crit_edge:                                      ; preds = %5, %24, %21, %18, %15, %12, %9
  %28 = phi i32 [ 0, %24 ], [ 0, %21 ], [ 0, %18 ], [ 0, %15 ], [ 0, %12 ], [ 0, %9 ], [ %8, %5 ]
  %29 = shl nsw i32 %6, 1
  %30 = shl nsw i32 %28, 1
  %31 = sub nsw i32 %29, %30
  %32 = ashr exact i32 %31, 1
  %33 = add nsw i32 %30, %29
  %34 = ashr exact i32 %33, 1
  %35 = getelementptr inbounds nuw i8, ptr %.077, i64 8
  %36 = load i32, ptr %35, align 4, !tbaa !34
  %37 = sub nsw i32 %34, %36
  %38 = ashr i32 %37, 1
  %39 = add nsw i32 %34, %36
  %40 = ashr i32 %39, 1
  %41 = getelementptr inbounds nuw i8, ptr %.077, i64 12
  %42 = load i32, ptr %41, align 4, !tbaa !34
  %43 = sub nsw i32 %32, %42
  %44 = ashr i32 %43, 1
  %45 = add nsw i32 %32, %42
  %46 = ashr i32 %45, 1
  %47 = getelementptr inbounds nuw i8, ptr %.077, i64 16
  %48 = load i32, ptr %47, align 4, !tbaa !34
  %49 = sub nsw i32 %40, %48
  %50 = lshr i32 %49, 1
  %51 = add nsw i32 %40, %48
  %52 = lshr i32 %51, 1
  %53 = getelementptr inbounds nuw i8, ptr %.077, i64 20
  %54 = load i32, ptr %53, align 4, !tbaa !34
  %55 = sub nsw i32 %38, %54
  %56 = lshr i32 %55, 1
  %57 = add nsw i32 %38, %54
  %58 = lshr i32 %57, 1
  %59 = getelementptr inbounds nuw i8, ptr %.077, i64 24
  %60 = load i32, ptr %59, align 4, !tbaa !34
  %61 = sub nsw i32 %46, %60
  %62 = lshr i32 %61, 1
  %63 = add nsw i32 %46, %60
  %64 = lshr i32 %63, 1
  %65 = getelementptr inbounds nuw i8, ptr %.077, i64 28
  %66 = load i32, ptr %65, align 4, !tbaa !34
  %67 = sub nsw i32 %44, %66
  %68 = lshr i32 %67, 1
  %69 = add nsw i32 %66, %44
  %70 = lshr i32 %69, 1
  %71 = trunc i32 %52 to i16
  store i16 %71, ptr %.06676, align 2, !tbaa !27
  %72 = trunc i32 %50 to i16
  %73 = getelementptr inbounds nuw i8, ptr %.06676, i64 2
  store i16 %72, ptr %73, align 2, !tbaa !27
  %74 = trunc i32 %58 to i16
  %75 = getelementptr inbounds nuw i8, ptr %.06676, i64 4
  store i16 %74, ptr %75, align 2, !tbaa !27
  %76 = trunc i32 %56 to i16
  %77 = getelementptr inbounds nuw i8, ptr %.06676, i64 6
  store i16 %76, ptr %77, align 2, !tbaa !27
  %78 = trunc i32 %64 to i16
  %79 = getelementptr inbounds nuw i8, ptr %.06676, i64 8
  store i16 %78, ptr %79, align 2, !tbaa !27
  %80 = trunc i32 %62 to i16
  %81 = getelementptr inbounds nuw i8, ptr %.06676, i64 10
  store i16 %80, ptr %81, align 2, !tbaa !27
  %82 = trunc i32 %70 to i16
  %83 = getelementptr inbounds nuw i8, ptr %.06676, i64 12
  store i16 %82, ptr %83, align 2, !tbaa !27
  %84 = trunc i32 %68 to i16
  %85 = getelementptr inbounds nuw i8, ptr %.06676, i64 14
  store i16 %84, ptr %85, align 2, !tbaa !27
  br label %86

86:                                               ; preds = %._crit_edge, %27
  %87 = getelementptr inbounds nuw i8, ptr %.077, i64 32
  %88 = getelementptr inbounds i16, ptr %.06676, i64 %2
  %89 = add nuw nsw i32 %.06775, 1
  %exitcond.not = icmp eq i32 %89, 8
  br i1 %exitcond.not, label %90, label %5, !llvm.loop !37

90:                                               ; preds = %86
  ret void
}